target datalayout = "e-m:e-p270:32:32-p271:32:32-p272:64:64-i64:64-i128:128-f80:128-n8:16:32:64-S128"
target triple = "x86_64-pc-linux-gnu"

%"class.std::__cxx11::basic_string" = type { %"struct.std::__cxx11::basic_string<char>::_Alloc_hider", i64, %union.anon.36 }
%"struct.std::__cxx11::basic_string<char>::_Alloc_hider" = type { ptr }
%union.anon.36 = type { i64, [8 x i8] }
%"struct.OpenImageIO::v3_1_0::oiioexr_filebuf_struct" = type { ptr, ptr }
%"class.OpenImageIO::v3_1_0::Filesystem::IOProxy" = type { ptr, %"class.std::__cxx11::basic_string", i64, i32, %"class.std::__cxx11::basic_string" }

@.str.92 = private unnamed_addr constant [22 x i8] c"EXR Error ({}): {} {}\00", align 1
@.str.93 = private unnamed_addr constant [10 x i8] c"<unknown>\00", align 1

; Function Attrs: mustprogress nounwind uwtable
define available_externally noundef ptr @_ZNKSt7__cxx1112basic_stringIcSt11char_traitsIcESaIcEE7_M_dataEv(ptr noundef nonnull align 8 dereferenceable(32) %0) #8 align 2 {
  %2 = alloca ptr, align 8
  store ptr %0, ptr %2, align 8, !tbaa !100
  %3 = load ptr, ptr %2, align 8
  %4 = getelementptr inbounds nuw %"class.std::__cxx11::basic_string", ptr %3, i32 0, i32 0
  %5 = getelementptr inbounds nuw %"struct.std::__cxx11::basic_string<char>::_Alloc_hider", ptr %4, i32 0, i32 0
  %6 = load ptr, ptr %5, align 8, !tbaa !599
  ret ptr %6
}

; Function Attrs: mustprogress nounwind uwtable
define available_externally noundef ptr @_ZNKSt7__cxx1112basic_stringIcSt11char_traitsIcESaIcEE5c_strEv(ptr noundef nonnull align 8 dereferenceable(32) %0) #8 align 2 {
  %2 = alloca ptr, align 8
  store ptr %0, ptr %2, align 8, !tbaa !100
  %3 = load ptr, ptr %2, align 8
  %4 = call noundef ptr @_ZNKSt7__cxx1112basic_stringIcSt11char_traitsIcESaIcEE7_M_dataEv(ptr noundef nonnull align 8 dereferenceable(32) %3)
  ret ptr %4
}

; Function Attrs: mustprogress nounwind uwtable
define linkonce_odr noundef nonnull align 8 dereferenceable(32) ptr @_ZNK11OpenImageIO6v3_1_010Filesystem7IOProxy8filenameB5cxx11Ev(ptr noundef nonnull align 8 dereferenceable(88) %0) #8 comdat align 2 {
  %2 = alloca ptr, align 8
  store ptr %0, ptr %2, align 8, !tbaa !97
  %3 = load ptr, ptr %2, align 8
  %4 = getelementptr inbounds nuw %"class.OpenImageIO::v3_1_0::Filesystem::IOProxy", ptr %3, i32 0, i32 1
  ret ptr %4
}

; Function Attrs: mustprogress uwtable
define internal void @_ZN11OpenImageIO6v3_1_0L22oiio_exr_error_handlerEPK19_priv_exr_context_tiPKc(ptr noundef %0, i32 noundef %1, ptr noundef %2) #6 {
  %4 = alloca ptr, align 8
  %5 = alloca i32, align 4
  %6 = alloca ptr, align 8
  %7 = alloca ptr, align 8
  %8 = alloca ptr, align 8
  %9 = alloca ptr, align 8
  %10 = alloca ptr, align 8
  %11 = alloca ptr, align 8
  %12 = alloca i32, align 4
  store ptr %0, ptr %4, align 8, !tbaa !108
  store i32 %1, ptr %5, align 4, !tbaa !107
  store ptr %2, ptr %6, align 8, !tbaa !14
  call void @llvm.lifetime.start.p0(i64 8, ptr %7) #5
  %13 = load ptr, ptr %4, align 8, !tbaa !108
  %14 = call i32 @exr_get_user_data(ptr noundef %13, ptr noundef %7)
  %15 = icmp eq i32 0, %14
  br i1 %15, label %16, label %58

16:                                               ; preds = %3
  %17 = load ptr, ptr %7, align 8, !tbaa !109
  %18 = icmp ne ptr %17, null
  br i1 %18, label %19, label %57

19:                                               ; preds = %16
  call void @llvm.lifetime.start.p0(i64 8, ptr %8) #5
  %20 = load ptr, ptr %7, align 8, !tbaa !109
  store ptr %20, ptr %8, align 8, !tbaa !82
  %21 = load ptr, ptr %8, align 8, !tbaa !82
  %22 = getelementptr inbounds nuw %"struct.OpenImageIO::v3_1_0::oiioexr_filebuf_struct", ptr %21, i32 0, i32 0
  %23 = load ptr, ptr %22, align 8, !tbaa !84
  %24 = icmp ne ptr %23, null
  br i1 %24, label %25, label %53

25:                                               ; preds = %19
  %26 = load ptr, ptr %8, align 8, !tbaa !82
  %27 = getelementptr inbounds nuw %"struct.OpenImageIO::v3_1_0::oiioexr_filebuf_struct", ptr %26, i32 0, i32 0
  %28 = load ptr, ptr %27, align 8, !tbaa !84
  call void @llvm.lifetime.start.p0(i64 8, ptr %9) #5
  %29 = load ptr, ptr %8, align 8, !tbaa !82
  %30 = getelementptr inbounds nuw %"struct.OpenImageIO::v3_1_0::oiioexr_filebuf_struct", ptr %29, i32 0, i32 1
  %31 = load ptr, ptr %30, align 8, !tbaa !85
  %32 = icmp ne ptr %31, null
  br i1 %32, label %33, label %39

33:                                               ; preds = %25
  %34 = load ptr, ptr %8, align 8, !tbaa !82
  %35 = getelementptr inbounds nuw %"struct.OpenImageIO::v3_1_0::oiioexr_filebuf_struct", ptr %34, i32 0, i32 1
  %36 = load ptr, ptr %35, align 8, !tbaa !85
  %37 = call noundef nonnull align 8 dereferenceable(32) ptr @_ZNK11OpenImageIO6v3_1_010Filesystem7IOProxy8filenameB5cxx11Ev(ptr noundef nonnull align 8 dereferenceable(88) %36)
  %38 = call noundef ptr @_ZNKSt7__cxx1112basic_stringIcSt11char_traitsIcESaIcEE5c_strEv(ptr noundef nonnull align 8 dereferenceable(32) %37) #5
  br label %40

39:                                               ; preds = %25
  br label %40

40:                                               ; preds = %39, %33
  %41 = phi ptr [ %38, %33 ], [ @.str.93, %39 ]
  store ptr %41, ptr %9, align 8, !tbaa !14
  call void @llvm.lifetime.start.p0(i64 8, ptr %10) #5
  %42 = load i32, ptr %5, align 4, !tbaa !107
  %43 = call ptr @exr_get_error_code_as_string(i32 noundef %42)
  store ptr %43, ptr %10, align 8, !tbaa !14
  call void @llvm.lifetime.start.p0(i64 8, ptr %11) #5
  %44 = load ptr, ptr %6, align 8, !tbaa !14
  %45 = icmp ne ptr %44, null
  br i1 %45, label %46, label %48

46:                                               ; preds = %40
  %47 = load ptr, ptr %6, align 8, !tbaa !14
  br label %51

48:                                               ; preds = %40
  %49 = load i32, ptr %5, align 4, !tbaa !107
  %50 = call ptr @exr_get_default_error_message(i32 noundef %49)
  br label %51

51:                                               ; preds = %48, %46
  %52 = phi ptr [ %47, %46 ], [ %50, %48 ]
  store ptr %52, ptr %11, align 8, !tbaa !14
  call void @_ZNK11OpenImageIO6v3_1_010ImageInput8errorfmtIJPKcS4_S4_EEEvS4_DpRKT_(ptr noundef nonnull align 8 dereferenceable(184) %28, ptr noundef @.str.92, ptr noundef nonnull align 8 dereferenceable(8) %9, ptr noundef nonnull align 8 dereferenceable(8) %10, ptr noundef nonnull align 8 dereferenceable(8) %11)
  call void @llvm.lifetime.end.p0(i64 8, ptr %11) #5
  call void @llvm.lifetime.end.p0(i64 8, ptr %10) #5
  call void @llvm.lifetime.end.p0(i64 8, ptr %9) #5
  store i32 1, ptr %12, align 4
  br label %54

53:                                               ; preds = %19
  store i32 0, ptr %12, align 4
  br label %54

54:                                               ; preds = %53, %51
  call void @llvm.lifetime.end.p0(i64 8, ptr %8) #5
  %55 = load i32, ptr %12, align 4
  switch i32 %55, label %59 [
    i32 0, label %56
  ]

56:                                               ; preds = %54
  br label %57

57:                                               ; preds = %56, %16
  br label %58

58:                                               ; preds = %57, %3
  store i32 0, ptr %12, align 4
  br label %59

59:                                               ; preds = %58, %54
  call void @llvm.lifetime.end.p0(i64 8, ptr %7) #5
  %60 = load i32, ptr %12, align 4
  switch i32 %60, label %62 [
    i32 0, label %61
    i32 1, label %61
  ]

61:                                               ; preds = %59, %59
  ret void

62:                                               ; preds = %59
  unreachable
}