; Function Attrs: mustprogress uwtable
define internal void @_ZN11OpenImageIO6v3_1_0L22oiio_exr_error_handlerEPK19_priv_exr_context_tiPKc(ptr noundef %0, i32 noundef %1, ptr noundef %2) #5 {
  %4 = alloca ptr, align 8
  %5 = alloca ptr, align 8
  %6 = alloca ptr, align 8
  %7 = alloca ptr, align 8
  call void @llvm.lifetime.start.p0(i64 8, ptr nonnull %4) #27
  %8 = call i32 @exr_get_user_data(ptr noundef %0, ptr noundef nonnull %4)
  %9 = icmp eq i32 %8, 0
  %10 = load ptr, ptr %4, align 8
  %11 = icmp ne ptr %10, null
  %or.cond = select i1 %9, i1 %11, i1 false
  br i1 %or.cond, label %12, label %.critedge

12:                                               ; preds = %3
  %13 = load ptr, ptr %10, align 8, !tbaa !89
  %.not = icmp eq ptr %13, null
  br i1 %.not, label %.critedge, label %14

14:                                               ; preds = %12
  call void @llvm.lifetime.start.p0(i64 8, ptr nonnull %5) #27
  %15 = getelementptr inbounds nuw i8, ptr %10, i64 8
  %16 = load ptr, ptr %15, align 8, !tbaa !90
  %.not14 = icmp eq ptr %16, null
  br i1 %.not14, label %20, label %17

17:                                               ; preds = %14
  %18 = getelementptr inbounds nuw i8, ptr %16, i64 8
  %19 = load ptr, ptr %18, align 8, !tbaa !65
  br label %20

20:                                               ; preds = %14, %17
  %21 = phi ptr [ %19, %17 ], [ @.str.93, %14 ]
  store ptr %21, ptr %5, align 8, !tbaa !94
  call void @llvm.lifetime.start.p0(i64 8, ptr nonnull %6) #27
  %22 = call ptr @exr_get_error_code_as_string(i32 noundef %1)
  store ptr %22, ptr %6, align 8, !tbaa !94
  call void @llvm.lifetime.start.p0(i64 8, ptr nonnull %7) #27
  %.not15 = icmp eq ptr %2, null
  br i1 %.not15, label %23, label %25

23:                                               ; preds = %20
  %24 = call ptr @exr_get_default_error_message(i32 noundef %1)
  br label %25

25:                                               ; preds = %20, %23
  %26 = phi ptr [ %24, %23 ], [ %2, %20 ]
  store ptr %26, ptr %7, align 8, !tbaa !94
  call void @_ZNK11OpenImageIO6v3_1_010ImageInput8errorfmtIJPKcS4_S4_EEEvS4_DpRKT_(ptr noundef nonnull align 8 dereferenceable(184) %13, ptr noundef nonnull @.str.92, ptr noundef nonnull align 8 dereferenceable(8) %5, ptr noundef nonnull align 8 dereferenceable(8) %6, ptr noundef nonnull align 8 dereferenceable(8) %7)
  call void @llvm.lifetime.end.p0(i64 8, ptr nonnull %7) #27
  call void @llvm.lifetime.end.p0(i64 8, ptr nonnull %6) #27
  call void @llvm.lifetime.end.p0(i64 8, ptr nonnull %5) #27
  br label %.critedge

.critedge:                                        ; preds = %12, %25, %3
  call void @llvm.lifetime.end.p0(i64 8, ptr nonnull %4) #27
  ret void
}